target datalayout = "e-m:e-p270:32:32-p271:32:32-p272:64:64-i64:64-i128:128-f80:128-n8:16:32:64-S128"
target triple = "x86_64-pc-linux-gnu"

@.str.2 = private unnamed_addr constant [8 x i8] c"xlate.c\00", align 1
@__func__._get_pbs_option_value = private unnamed_addr constant [22 x i8] c"_get_pbs_option_value\00", align 1

; Function Attrs: nounwind uwtable
define internal ptr @_get_pbs_option_value(ptr noundef %0, ptr noundef %1, i8 noundef signext %2) #0 {
  %4 = alloca ptr, align 8
  %5 = alloca ptr, align 8
  %6 = alloca i8, align 1
  %7 = alloca i32, align 4
  %8 = alloca ptr, align 8
  store ptr %0, ptr %4, align 8
  store ptr %1, ptr %5, align 8
  store i8 %2, ptr %6, align 1
  call void @llvm.lifetime.start.p0(i64 4, ptr %7) #8
  %9 = load ptr, ptr %5, align 8
  %10 = load i32, ptr %9, align 4
  store i32 %10, ptr %7, align 4
  call void @llvm.lifetime.start.p0(i64 8, ptr %8) #8
  store ptr null, ptr %8, align 8
  br label %11

11:                                               ; preds = %33, %3
  %12 = load ptr, ptr %4, align 8
  %13 = load ptr, ptr %5, align 8
  %14 = load i32, ptr %13, align 4
  %15 = sext i32 %14 to i64
  %16 = getelementptr inbounds i8, ptr %12, i64 %15
  %17 = load i8, ptr %16, align 1
  %18 = sext i8 %17 to i32
  %19 = icmp ne i32 %18, 0
  br i1 %19, label %20, label %31

20:                                               ; preds = %11
  %21 = load ptr, ptr %4, align 8
  %22 = load ptr, ptr %5, align 8
  %23 = load i32, ptr %22, align 4
  %24 = sext i32 %23 to i64
  %25 = getelementptr inbounds i8, ptr %21, i64 %24
  %26 = load i8, ptr %25, align 1
  %27 = sext i8 %26 to i32
  %28 = load i8, ptr %6, align 1
  %29 = sext i8 %28 to i32
  %30 = icmp ne i32 %27, %29
  br label %31

31:                                               ; preds = %20, %11
  %32 = phi i1 [ false, %11 ], [ %30, %20 ]
  br i1 %32, label %33, label %37

33:                                               ; preds = %31
  %34 = load ptr, ptr %5, align 8
  %35 = load i32, ptr %34, align 4
  %36 = add nsw i32 %35, 1
  store i32 %36, ptr %34, align 4
  br label %11, !llvm.loop !20

37:                                               ; preds = %31
  %38 = load ptr, ptr %5, align 8
  %39 = load i32, ptr %38, align 4
  %40 = load i32, ptr %7, align 4
  %41 = sub nsw i32 %39, %40
  %42 = add nsw i32 %41, 1
  %43 = sext i32 %42 to i64
  %44 = call ptr @slurm_xcalloc(i64 noundef 1, i64 noundef %43, i1 noundef zeroext true, i1 noundef zeroext false, ptr noundef @.str.2, i32 noundef 522, ptr noundef @__func__._get_pbs_option_value)
  store ptr %44, ptr %8, align 8
  %45 = load ptr, ptr %8, align 8
  %46 = load ptr, ptr %4, align 8
  %47 = load i32, ptr %7, align 4
  %48 = sext i32 %47 to i64
  %49 = getelementptr inbounds i8, ptr %46, i64 %48
  %50 = load ptr, ptr %5, align 8
  %51 = load i32, ptr %50, align 4
  %52 = load i32, ptr %7, align 4
  %53 = sub nsw i32 %51, %52
  %54 = sext i32 %53 to i64
  call void @llvm.memcpy.p0.p0.i64(ptr align 1 %45, ptr align 1 %49, i64 %54, i1 false)
  %55 = load ptr, ptr %4, align 8
  %56 = load ptr, ptr %5, align 8
  %57 = load i32, ptr %56, align 4
  %58 = sext i32 %57 to i64
  %59 = getelementptr inbounds i8, ptr %55, i64 %58
  %60 = load i8, ptr %59, align 1
  %61 = icmp ne i8 %60, 0
  br i1 %61, label %62, label %66

62:                                               ; preds = %37
  %63 = load ptr, ptr %5, align 8
  %64 = load i32, ptr %63, align 4
  %65 = add nsw i32 %64, 1
  store i32 %65, ptr %63, align 4
  br label %66

66:                                               ; preds = %62, %37
  %67 = load ptr, ptr %8, align 8
  call void @llvm.lifetime.end.p0(i64 8, ptr %8) #8
  call void @llvm.lifetime.end.p0(i64 4, ptr %7) #8
  ret ptr %67
}