; Function Attrs: nounwind uwtable
define internal fastcc ptr @_get_pbs_option_value(ptr noundef readonly captures(none) %0, ptr noundef nonnull captures(none) %1, i8 noundef signext range(i8 44, 59) %2) unnamed_addr #0 {
  %4 = load i32, ptr %1, align 4
  %5 = sext i32 %4 to i64
  %6 = getelementptr inbounds i8, ptr %0, i64 %5
  %7 = load i8, ptr %6, align 1
  %.not19 = icmp eq i8 %7, 0
  %.not1720 = icmp eq i8 %7, %2
  %or.cond21 = or i1 %.not19, %.not1720
  br i1 %or.cond21, label %.critedge, label %.lr.ph

.lr.ph:                                           ; preds = %3, %.lr.ph
  %indvars.iv = phi i64 [ %indvars.iv.next, %.lr.ph ], [ %5, %3 ]
  %indvars.iv.next = add nsw i64 %indvars.iv, 1
  %8 = trunc nsw i64 %indvars.iv.next to i32
  store i32 %8, ptr %1, align 4
  %9 = getelementptr inbounds i8, ptr %0, i64 %indvars.iv.next
  %10 = load i8, ptr %9, align 1
  %.not = icmp eq i8 %10, 0
  %.not17 = icmp eq i8 %10, %2
  %or.cond = or i1 %.not, %.not17
  br i1 %or.cond, label %.critedge, label %.lr.ph, !llvm.loop !22

.critedge:                                        ; preds = %.lr.ph, %3
  %.lcssa = phi i32 [ %4, %3 ], [ %8, %.lr.ph ]
  %reass.sub = sub i32 %.lcssa, %4
  %11 = add i32 %reass.sub, 1
  %12 = sext i32 %11 to i64
  %13 = tail call ptr @slurm_xcalloc(i64 noundef 1, i64 noundef %12, i1 noundef zeroext true, i1 noundef zeroext false, ptr noundef nonnull @.str.2, i32 noundef 522, ptr noundef nonnull @__func__._get_pbs_option_value) #10
  %14 = load i32, ptr %1, align 4
  %15 = sub nsw i32 %14, %4
  %16 = sext i32 %15 to i64
  tail call void @llvm.memcpy.p0.p0.i64(ptr align 1 %13, ptr nonnull align 1 %6, i64 %16, i1 false)
  %17 = load i32, ptr %1, align 4
  %18 = sext i32 %17 to i64
  %19 = getelementptr inbounds i8, ptr %0, i64 %18
  %20 = load i8, ptr %19, align 1
  %.not18 = icmp eq i8 %20, 0
  br i1 %.not18, label %23, label %21

21:                                               ; preds = %.critedge
  %22 = add nsw i32 %17, 1
  store i32 %22, ptr %1, align 4
  br label %23

23:                                               ; preds = %21, %.critedge
  ret ptr %13
}